; Function Attrs: mustprogress uwtable
define hidden void @_ZN3smt16arith_eq_adapter12new_diseq_ehEii(ptr noundef nonnull align 8 dereferenceable(64) %0, i32 noundef %1, i32 noundef %2) local_unnamed_addr #4 align 2 {
  %4 = getelementptr inbounds nuw i8, ptr %0, i64 8
  %5 = load ptr, ptr %4, align 8, !tbaa !3
  %6 = getelementptr inbounds nuw i8, ptr %5, i64 32
  %7 = load ptr, ptr %6, align 8, !tbaa !638
  %8 = zext i32 %1 to i64
  %9 = getelementptr inbounds nuw ptr, ptr %7, i64 %8
  %10 = load ptr, ptr %9, align 8, !tbaa !639
  %11 = zext i32 %2 to i64
  %12 = getelementptr inbounds nuw ptr, ptr %7, i64 %11
  %13 = load ptr, ptr %12, align 8, !tbaa !639
  tail call void @_ZN3smt16arith_eq_adapter9mk_axiomsEPNS_5enodeES2_(ptr noundef nonnull align 8 dereferenceable(64) %0, ptr noundef %10, ptr noundef %13)
  ret void
}